target datalayout = "e-m:e-p270:32:32-p271:32:32-p272:64:64-i64:64-i128:128-f80:128-n8:16:32:64-S128"
target triple = "x86_64-pc-linux-gnu"

%struct.diff_filespec = type { %struct.object_id, ptr, ptr, ptr, i64, i32, i32, i16, i16, ptr }
%struct.object_id = type { [32 x i8], i32 }
%struct.diff_filepair = type { ptr, ptr, i16, i8, i8 }

; Function Attrs: inlinehint nounwind uwtable
define internal i32 @oideq(ptr noundef %0, ptr noundef %1) #2 {
  %3 = alloca ptr, align 8
  %4 = alloca ptr, align 8
  store ptr %0, ptr %3, align 8, !tbaa !141
  store ptr %1, ptr %4, align 8, !tbaa !141
  %5 = load ptr, ptr %3, align 8, !tbaa !141
  %6 = getelementptr inbounds nuw %struct.object_id, ptr %5, i32 0, i32 0
  %7 = getelementptr inbounds [32 x i8], ptr %6, i64 0, i64 0
  %8 = load ptr, ptr %4, align 8, !tbaa !141
  %9 = getelementptr inbounds nuw %struct.object_id, ptr %8, i32 0, i32 0
  %10 = getelementptr inbounds [32 x i8], ptr %9, i64 0, i64 0
  %11 = call i32 @memcmp(ptr noundef %7, ptr noundef %10, i64 noundef 32) #11
  %12 = icmp ne i32 %11, 0
  %13 = xor i1 %12, true
  %14 = zext i1 %13 to i32
  ret i32 %14
}

; Function Attrs: nounwind uwtable
define dso_local i32 @diff_unmodified_pair(ptr noundef %0) #0 {
  %2 = alloca i32, align 4
  %3 = alloca ptr, align 8
  %4 = alloca ptr, align 8
  %5 = alloca ptr, align 8
  %6 = alloca i32, align 4
  store ptr %0, ptr %3, align 8, !tbaa !180
  call void @llvm.lifetime.start.p0(i64 8, ptr %4) #10
  %7 = load ptr, ptr %3, align 8, !tbaa !180
  %8 = getelementptr inbounds nuw %struct.diff_filepair, ptr %7, i32 0, i32 0
  %9 = load ptr, ptr %8, align 8, !tbaa !185
  store ptr %9, ptr %4, align 8, !tbaa !88
  call void @llvm.lifetime.start.p0(i64 8, ptr %5) #10
  %10 = load ptr, ptr %3, align 8, !tbaa !180
  %11 = getelementptr inbounds nuw %struct.diff_filepair, ptr %10, i32 0, i32 1
  %12 = load ptr, ptr %11, align 8, !tbaa !187
  store ptr %12, ptr %5, align 8, !tbaa !88
  %13 = load ptr, ptr %3, align 8, !tbaa !180
  %14 = getelementptr inbounds nuw %struct.diff_filepair, ptr %13, i32 0, i32 4
  %15 = load i8, ptr %14, align 1
  %16 = lshr i8 %15, 2
  %17 = and i8 %16, 1
  %18 = zext i8 %17 to i32
  %19 = icmp ne i32 %18, 0
  br i1 %19, label %20, label %21

20:                                               ; preds = %1
  store i32 0, ptr %2, align 4
  store i32 1, ptr %6, align 4
  br label %113

21:                                               ; preds = %1
  %22 = load ptr, ptr %4, align 8, !tbaa !88
  %23 = getelementptr inbounds nuw %struct.diff_filespec, ptr %22, i32 0, i32 7
  %24 = load i16, ptr %23, align 8, !tbaa !119
  %25 = zext i16 %24 to i32
  %26 = icmp ne i32 %25, 0
  %27 = zext i1 %26 to i32
  %28 = load ptr, ptr %5, align 8, !tbaa !88
  %29 = getelementptr inbounds nuw %struct.diff_filespec, ptr %28, i32 0, i32 7
  %30 = load i16, ptr %29, align 8, !tbaa !119
  %31 = zext i16 %30 to i32
  %32 = icmp ne i32 %31, 0
  %33 = zext i1 %32 to i32
  %34 = icmp ne i32 %27, %33
  br i1 %34, label %58, label %35

35:                                               ; preds = %21
  %36 = load ptr, ptr %3, align 8, !tbaa !180
  %37 = getelementptr inbounds nuw %struct.diff_filepair, ptr %36, i32 0, i32 0
  %38 = load ptr, ptr %37, align 8, !tbaa !185
  %39 = getelementptr inbounds nuw %struct.diff_filespec, ptr %38, i32 0, i32 7
  %40 = load i16, ptr %39, align 8, !tbaa !119
  %41 = zext i16 %40 to i32
  %42 = load ptr, ptr %3, align 8, !tbaa !180
  %43 = getelementptr inbounds nuw %struct.diff_filepair, ptr %42, i32 0, i32 1
  %44 = load ptr, ptr %43, align 8, !tbaa !187
  %45 = getelementptr inbounds nuw %struct.diff_filespec, ptr %44, i32 0, i32 7
  %46 = load i16, ptr %45, align 8, !tbaa !119
  %47 = zext i16 %46 to i32
  %48 = icmp ne i32 %41, %47
  br i1 %48, label %58, label %49

49:                                               ; preds = %35
  %50 = load ptr, ptr %4, align 8, !tbaa !88
  %51 = getelementptr inbounds nuw %struct.diff_filespec, ptr %50, i32 0, i32 1
  %52 = load ptr, ptr %51, align 8, !tbaa !122
  %53 = load ptr, ptr %5, align 8, !tbaa !88
  %54 = getelementptr inbounds nuw %struct.diff_filespec, ptr %53, i32 0, i32 1
  %55 = load ptr, ptr %54, align 8, !tbaa !122
  %56 = call i32 @strcmp(ptr noundef %52, ptr noundef %55) #11
  %57 = icmp ne i32 %56, 0
  br i1 %57, label %58, label %59

58:                                               ; preds = %49, %35, %21
  store i32 0, ptr %2, align 4
  store i32 1, ptr %6, align 4
  br label %113

59:                                               ; preds = %49
  %60 = load ptr, ptr %4, align 8, !tbaa !88
  %61 = getelementptr inbounds nuw %struct.diff_filespec, ptr %60, i32 0, i32 8
  %62 = load i16, ptr %61, align 2
  %63 = and i16 %62, 1
  %64 = zext i16 %63 to i32
  %65 = icmp ne i32 %64, 0
  br i1 %65, label %66, label %97

66:                                               ; preds = %59
  %67 = load ptr, ptr %5, align 8, !tbaa !88
  %68 = getelementptr inbounds nuw %struct.diff_filespec, ptr %67, i32 0, i32 8
  %69 = load i16, ptr %68, align 2
  %70 = and i16 %69, 1
  %71 = zext i16 %70 to i32
  %72 = icmp ne i32 %71, 0
  br i1 %72, label %73, label %97

73:                                               ; preds = %66
  %74 = load ptr, ptr %4, align 8, !tbaa !88
  %75 = getelementptr inbounds nuw %struct.diff_filespec, ptr %74, i32 0, i32 0
  %76 = load ptr, ptr %5, align 8, !tbaa !88
  %77 = getelementptr inbounds nuw %struct.diff_filespec, ptr %76, i32 0, i32 0
  %78 = call i32 @oideq(ptr noundef %75, ptr noundef %77)
  %79 = icmp ne i32 %78, 0
  br i1 %79, label %80, label %97

80:                                               ; preds = %73
  %81 = load ptr, ptr %4, align 8, !tbaa !88
  %82 = getelementptr inbounds nuw %struct.diff_filespec, ptr %81, i32 0, i32 8
  %83 = load i16, ptr %82, align 2
  %84 = lshr i16 %83, 3
  %85 = and i16 %84, 3
  %86 = zext i16 %85 to i32
  %87 = icmp ne i32 %86, 0
  br i1 %87, label %97, label %88

88:                                               ; preds = %80
  %89 = load ptr, ptr %5, align 8, !tbaa !88
  %90 = getelementptr inbounds nuw %struct.diff_filespec, ptr %89, i32 0, i32 8
  %91 = load i16, ptr %90, align 2
  %92 = lshr i16 %91, 3
  %93 = and i16 %92, 3
  %94 = zext i16 %93 to i32
  %95 = icmp ne i32 %94, 0
  br i1 %95, label %97, label %96

96:                                               ; preds = %88
  store i32 1, ptr %2, align 4
  store i32 1, ptr %6, align 4
  br label %113

97:                                               ; preds = %88, %80, %73, %66, %59
  %98 = load ptr, ptr %4, align 8, !tbaa !88
  %99 = getelementptr inbounds nuw %struct.diff_filespec, ptr %98, i32 0, i32 8
  %100 = load i16, ptr %99, align 2
  %101 = and i16 %100, 1
  %102 = zext i16 %101 to i32
  %103 = icmp ne i32 %102, 0
  br i1 %103, label %112, label %104

104:                                              ; preds = %97
  %105 = load ptr, ptr %5, align 8, !tbaa !88
  %106 = getelementptr inbounds nuw %struct.diff_filespec, ptr %105, i32 0, i32 8
  %107 = load i16, ptr %106, align 2
  %108 = and i16 %107, 1
  %109 = zext i16 %108 to i32
  %110 = icmp ne i32 %109, 0
  br i1 %110, label %112, label %111

111:                                              ; preds = %104
  store i32 1, ptr %2, align 4
  store i32 1, ptr %6, align 4
  br label %113

112:                                              ; preds = %104, %97
  store i32 0, ptr %2, align 4
  store i32 1, ptr %6, align 4
  br label %113

113:                                              ; preds = %112, %111, %96, %58, %20
  call void @llvm.lifetime.end.p0(i64 8, ptr %5) #10
  call void @llvm.lifetime.end.p0(i64 8, ptr %4) #10
  %114 = load i32, ptr %2, align 4
  ret i32 %114
}