; Function Attrs: mustprogress nofree nounwind willreturn memory(read, inaccessiblemem: none) uwtable
define dso_local range(i32 0, 2) i32 @diff_unmodified_pair(ptr noundef readonly captures(none) %0) local_unnamed_addr #24 {
  %2 = load ptr, ptr %0, align 8, !tbaa !168
  %3 = getelementptr inbounds nuw i8, ptr %0, i64 8
  %4 = load ptr, ptr %3, align 8, !tbaa !171
  %5 = getelementptr inbounds nuw i8, ptr %0, i64 19
  %6 = load i8, ptr %5, align 1
  %7 = and i8 %6, 4
  %.not = icmp eq i8 %7, 0
  br i1 %.not, label %8, label %34

8:                                                ; preds = %1
  %9 = getelementptr inbounds nuw i8, ptr %2, i64 80
  %10 = load i16, ptr %9, align 8, !tbaa !100
  %11 = icmp ne i16 %10, 0
  %12 = getelementptr inbounds nuw i8, ptr %4, i64 80
  %13 = load i16, ptr %12, align 8, !tbaa !100
  %14 = icmp eq i16 %13, 0
  %.not17 = xor i1 %11, %14
  %.not18 = icmp eq i16 %10, %13
  %or.cond = and i1 %.not18, %.not17
  br i1 %or.cond, label %15, label %34

15:                                               ; preds = %8
  %16 = getelementptr inbounds nuw i8, ptr %2, i64 40
  %17 = load ptr, ptr %16, align 8, !tbaa !101
  %18 = getelementptr inbounds nuw i8, ptr %4, i64 40
  %19 = load ptr, ptr %18, align 8, !tbaa !101
  %20 = tail call i32 @strcmp(ptr noundef nonnull dereferenceable(1) %17, ptr noundef nonnull dereferenceable(1) %19) #33
  %.not19 = icmp eq i32 %20, 0
  br i1 %.not19, label %21, label %34

21:                                               ; preds = %15
  %22 = getelementptr inbounds nuw i8, ptr %2, i64 82
  %23 = load i16, ptr %22, align 2
  %24 = and i16 %23, 1
  %.not20 = icmp eq i16 %24, 0
  %25 = getelementptr inbounds nuw i8, ptr %4, i64 82
  %26 = load i16, ptr %25, align 2
  %27 = and i16 %26, 1
  %.not26 = icmp eq i16 %27, 0
  br i1 %.not20, label %33, label %28

28:                                               ; preds = %21
  br i1 %.not26, label %.thread, label %29

29:                                               ; preds = %28
  %bcmp.i = tail call i32 @bcmp(ptr noundef nonnull readonly dereferenceable(32) %2, ptr noundef nonnull readonly dereferenceable(32) %4, i64 32)
  %.not.i = icmp eq i32 %bcmp.i, 0
  %30 = or i16 %26, %23
  %31 = and i16 %30, 24
  %32 = icmp eq i16 %31, 0
  %or.cond28 = and i1 %32, %.not.i
  br i1 %or.cond28, label %34, label %.thread

33:                                               ; preds = %21
  br i1 %.not26, label %34, label %.thread

.thread:                                          ; preds = %28, %29, %33
  br label %34

34:                                               ; preds = %29, %33, %8, %15, %1, %.thread
  %.0 = phi i32 [ 0, %.thread ], [ 0, %1 ], [ 0, %15 ], [ 0, %8 ], [ 1, %33 ], [ 1, %29 ]
  ret i32 %.0
}